target datalayout = "e-m:e-p270:32:32-p271:32:32-p272:64:64-i64:64-i128:128-f80:128-n8:16:32:64-S128"
target triple = "x86_64-pc-linux-gnu"

%struct._GList = type { ptr, ptr, ptr }
%struct._extcap_arg = type { i32, ptr, ptr, ptr, ptr, ptr, i8, i8, i8, i8, ptr, ptr, i32, ptr, ptr, ptr, ptr, ptr, ptr }
%struct._extcap_complex = type { i32, ptr }

; Function Attrs: null_pointer_is_valid sspstrong uwtable
define hidden void @extcap_free_if_configuration(ptr noundef %0, i1 noundef zeroext %1) #0 {
  %3 = alloca ptr, align 8
  %4 = alloca i8, align 1
  %5 = alloca ptr, align 8
  %6 = alloca ptr, align 8
  store ptr %0, ptr %3, align 8
  %7 = zext i1 %1 to i8
  store i8 %7, ptr %4, align 1
  call void @llvm.lifetime.start.p0(i64 8, ptr %5) #9
  call void @llvm.lifetime.start.p0(i64 8, ptr %6) #9
  %8 = load ptr, ptr %3, align 8
  %9 = call ptr @g_list_first(ptr noundef %8)
  store ptr %9, ptr %5, align 8
  br label %10

10:                                               ; preds = %31, %2
  %11 = load ptr, ptr %5, align 8
  %12 = icmp ne ptr %11, null
  br i1 %12, label %13, label %35

13:                                               ; preds = %10
  %14 = load ptr, ptr %5, align 8
  %15 = getelementptr inbounds nuw %struct._GList, ptr %14, i32 0, i32 0
  %16 = load ptr, ptr %15, align 8
  %17 = icmp ne ptr %16, null
  br i1 %17, label %18, label %30

18:                                               ; preds = %13
  %19 = load ptr, ptr %5, align 8
  %20 = getelementptr inbounds nuw %struct._GList, ptr %19, i32 0, i32 0
  %21 = load ptr, ptr %20, align 8
  %22 = call ptr @g_list_first(ptr noundef %21)
  store ptr %22, ptr %6, align 8
  %23 = load i8, ptr %4, align 1, !range !9, !noundef !10
  %24 = trunc i8 %23 to i1
  br i1 %24, label %25, label %27

25:                                               ; preds = %18
  %26 = load ptr, ptr %6, align 8
  call void @extcap_free_arg_list(ptr noundef %26)
  br label %29

27:                                               ; preds = %18
  %28 = load ptr, ptr %6, align 8
  call void @g_list_free(ptr noundef %28)
  br label %29

29:                                               ; preds = %27, %25
  br label %30

30:                                               ; preds = %29, %13
  br label %31

31:                                               ; preds = %30
  %32 = load ptr, ptr %5, align 8
  %33 = getelementptr inbounds nuw %struct._GList, ptr %32, i32 0, i32 1
  %34 = load ptr, ptr %33, align 8
  store ptr %34, ptr %5, align 8
  br label %10, !llvm.loop !16

35:                                               ; preds = %10
  %36 = load ptr, ptr %3, align 8
  call void @g_list_free(ptr noundef %36)
  call void @llvm.lifetime.end.p0(i64 8, ptr %6) #9
  call void @llvm.lifetime.end.p0(i64 8, ptr %5) #9
  ret void
}

; Function Attrs: null_pointer_is_valid sspstrong uwtable
define hidden zeroext i1 @_extcap_requires_configuration_int(ptr noundef %0, i1 noundef zeroext %1) #0 {
  %3 = alloca ptr, align 8
  %4 = alloca i8, align 1
  %5 = alloca ptr, align 8
  %6 = alloca ptr, align 8
  %7 = alloca ptr, align 8
  %8 = alloca i8, align 1
  %9 = alloca ptr, align 8
  %10 = alloca ptr, align 8
  %11 = alloca ptr, align 8
  store ptr %0, ptr %3, align 8
  %12 = zext i1 %1 to i8
  store i8 %12, ptr %4, align 1
  call void @llvm.lifetime.start.p0(i64 8, ptr %5) #9
  store ptr null, ptr %5, align 8
  call void @llvm.lifetime.start.p0(i64 8, ptr %6) #9
  store ptr null, ptr %6, align 8
  call void @llvm.lifetime.start.p0(i64 8, ptr %7) #9
  store ptr null, ptr %7, align 8
  call void @llvm.lifetime.start.p0(i64 1, ptr %8) #9
  store i8 0, ptr %8, align 1
  call void @extcap_ensure_all_interfaces_loaded()
  %13 = load ptr, ptr %3, align 8
  %14 = call ptr @extcap_get_if_configuration(ptr noundef %13)
  store ptr %14, ptr %5, align 8
  %15 = load ptr, ptr %5, align 8
  %16 = call ptr @g_list_first(ptr noundef %15)
  store ptr %16, ptr %6, align 8
  br label %17

17:                                               ; preds = %127, %2
  %18 = load ptr, ptr %6, align 8
  %19 = icmp ne ptr %18, null
  br i1 %19, label %20, label %24

20:                                               ; preds = %17
  %21 = load i8, ptr %8, align 1, !range !9, !noundef !10
  %22 = trunc i8 %21 to i1
  %23 = xor i1 %22, true
  br label %24

24:                                               ; preds = %20, %17
  %25 = phi i1 [ false, %17 ], [ %23, %20 ]
  br i1 %25, label %26, label %131

26:                                               ; preds = %24
  %27 = load ptr, ptr %6, align 8
  %28 = getelementptr inbounds nuw %struct._GList, ptr %27, i32 0, i32 0
  %29 = load ptr, ptr %28, align 8
  %30 = call ptr @g_list_first(ptr noundef %29)
  store ptr %30, ptr %7, align 8
  br label %31

31:                                               ; preds = %123, %26
  %32 = load ptr, ptr %7, align 8
  %33 = icmp ne ptr %32, null
  br i1 %33, label %34, label %38

34:                                               ; preds = %31
  %35 = load i8, ptr %8, align 1, !range !9, !noundef !10
  %36 = trunc i8 %35 to i1
  %37 = xor i1 %36, true
  br label %38

38:                                               ; preds = %34, %31
  %39 = phi i1 [ false, %31 ], [ %37, %34 ]
  br i1 %39, label %40, label %127

40:                                               ; preds = %38
  %41 = load ptr, ptr %7, align 8
  %42 = getelementptr inbounds nuw %struct._GList, ptr %41, i32 0, i32 0
  %43 = load ptr, ptr %42, align 8
  %44 = icmp ne ptr %43, null
  br i1 %44, label %45, label %123

45:                                               ; preds = %40
  call void @llvm.lifetime.start.p0(i64 8, ptr %9) #9
  %46 = load ptr, ptr %7, align 8
  %47 = getelementptr inbounds nuw %struct._GList, ptr %46, i32 0, i32 0
  %48 = load ptr, ptr %47, align 8
  store ptr %48, ptr %9, align 8
  %49 = load i8, ptr %4, align 1, !range !9, !noundef !10
  %50 = trunc i8 %49 to i1
  br i1 %50, label %52, label %51

51:                                               ; preds = %45
  store i8 1, ptr %8, align 1
  br label %122

52:                                               ; preds = %45
  %53 = load ptr, ptr %9, align 8
  %54 = getelementptr inbounds nuw %struct._extcap_arg, ptr %53, i32 0, i32 7
  %55 = load i8, ptr %54, align 1, !range !9, !noundef !10
  %56 = trunc i8 %55 to i1
  br i1 %56, label %57, label %121

57:                                               ; preds = %52
  call void @llvm.lifetime.start.p0(i64 8, ptr %10) #9
  store ptr null, ptr %10, align 8
  call void @llvm.lifetime.start.p0(i64 8, ptr %11) #9
  store ptr null, ptr %11, align 8
  %58 = load ptr, ptr %9, align 8
  %59 = getelementptr inbounds nuw %struct._extcap_arg, ptr %58, i32 0, i32 16
  %60 = load ptr, ptr %59, align 8
  %61 = icmp ne ptr %60, null
  br i1 %61, label %62, label %67

62:                                               ; preds = %57
  %63 = load ptr, ptr %9, align 8
  %64 = getelementptr inbounds nuw %struct._extcap_arg, ptr %63, i32 0, i32 16
  %65 = load ptr, ptr %64, align 8
  %66 = load ptr, ptr %65, align 8
  store ptr %66, ptr %10, align 8
  br label %67

67:                                               ; preds = %62, %57
  %68 = load ptr, ptr %9, align 8
  %69 = getelementptr inbounds nuw %struct._extcap_arg, ptr %68, i32 0, i32 15
  %70 = load ptr, ptr %69, align 8
  %71 = icmp ne ptr %70, null
  br i1 %71, label %72, label %85

72:                                               ; preds = %67
  %73 = load ptr, ptr %9, align 8
  %74 = getelementptr inbounds nuw %struct._extcap_arg, ptr %73, i32 0, i32 15
  %75 = load ptr, ptr %74, align 8
  %76 = getelementptr inbounds nuw %struct._extcap_complex, ptr %75, i32 0, i32 1
  %77 = load ptr, ptr %76, align 8
  %78 = icmp ne ptr %77, null
  br i1 %78, label %79, label %85

79:                                               ; preds = %72
  %80 = load ptr, ptr %9, align 8
  %81 = getelementptr inbounds nuw %struct._extcap_arg, ptr %80, i32 0, i32 15
  %82 = load ptr, ptr %81, align 8
  %83 = getelementptr inbounds nuw %struct._extcap_complex, ptr %82, i32 0, i32 1
  %84 = load ptr, ptr %83, align 8
  store ptr %84, ptr %11, align 8
  br label %85

85:                                               ; preds = %79, %72, %67
  %86 = load ptr, ptr %9, align 8
  %87 = getelementptr inbounds nuw %struct._extcap_arg, ptr %86, i32 0, i32 7
  %88 = load i8, ptr %87, align 1, !range !9, !noundef !10
  %89 = trunc i8 %88 to i1
  br i1 %89, label %90, label %102

90:                                               ; preds = %85
  %91 = load ptr, ptr %11, align 8
  %92 = icmp ne ptr %91, null
  br i1 %92, label %101, label %93

93:                                               ; preds = %90
  %94 = load ptr, ptr %10, align 8
  %95 = icmp ne ptr %94, null
  br i1 %95, label %96, label %100

96:                                               ; preds = %93
  %97 = load ptr, ptr %10, align 8
  %98 = load i8, ptr %97, align 1
  %99 = icmp ne i8 %98, 0
  br i1 %99, label %101, label %100

100:                                              ; preds = %96, %93
  store i8 1, ptr %8, align 1
  br label %101

101:                                              ; preds = %100, %96, %90
  br label %102

102:                                              ; preds = %101, %85
  %103 = load ptr, ptr %9, align 8
  %104 = getelementptr inbounds nuw %struct._extcap_arg, ptr %103, i32 0, i32 12
  %105 = load i32, ptr %104, align 8
  %106 = icmp eq i32 %105, 13
  br i1 %106, label %107, label %120

107:                                              ; preds = %102
  %108 = load ptr, ptr %9, align 8
  %109 = getelementptr inbounds nuw %struct._extcap_arg, ptr %108, i32 0, i32 6
  %110 = load i8, ptr %109, align 8, !range !9, !noundef !10
  %111 = trunc i8 %110 to i1
  br i1 %111, label %112, label %119

112:                                              ; preds = %107
  %113 = load ptr, ptr %11, align 8
  %114 = call zeroext i1 @file_exists(ptr noundef %113)
  br i1 %114, label %119, label %115

115:                                              ; preds = %112
  %116 = load ptr, ptr %10, align 8
  %117 = call zeroext i1 @file_exists(ptr noundef %116)
  br i1 %117, label %119, label %118

118:                                              ; preds = %115
  store i8 1, ptr %8, align 1
  br label %119

119:                                              ; preds = %118, %115, %112, %107
  br label %120

120:                                              ; preds = %119, %102
  call void @llvm.lifetime.end.p0(i64 8, ptr %11) #9
  call void @llvm.lifetime.end.p0(i64 8, ptr %10) #9
  br label %121

121:                                              ; preds = %120, %52
  br label %122

122:                                              ; preds = %121, %51
  call void @llvm.lifetime.end.p0(i64 8, ptr %9) #9
  br label %123

123:                                              ; preds = %122, %40
  %124 = load ptr, ptr %7, align 8
  %125 = getelementptr inbounds nuw %struct._GList, ptr %124, i32 0, i32 1
  %126 = load ptr, ptr %125, align 8
  store ptr %126, ptr %7, align 8
  br label %31, !llvm.loop !20

127:                                              ; preds = %38
  %128 = load ptr, ptr %6, align 8
  %129 = getelementptr inbounds nuw %struct._GList, ptr %128, i32 0, i32 1
  %130 = load ptr, ptr %129, align 8
  store ptr %130, ptr %6, align 8
  br label %17, !llvm.loop !21

131:                                              ; preds = %24
  %132 = load ptr, ptr %5, align 8
  call void @extcap_free_if_configuration(ptr noundef %132, i1 noundef zeroext true)
  %133 = load i8, ptr %8, align 1, !range !9, !noundef !10
  %134 = trunc i8 %133 to i1
  call void @llvm.lifetime.end.p0(i64 1, ptr %8) #9
  call void @llvm.lifetime.end.p0(i64 8, ptr %7) #9
  call void @llvm.lifetime.end.p0(i64 8, ptr %6) #9
  call void @llvm.lifetime.end.p0(i64 8, ptr %5) #9
  ret i1 %134
}