; Function Attrs: null_pointer_is_valid sspstrong uwtable
define hidden zeroext i1 @_extcap_requires_configuration_int(ptr noundef %0, i1 noundef zeroext %1) local_unnamed_addr #0 {
  tail call fastcc void @extcap_ensure_all_interfaces_loaded()
  %3 = tail call ptr @extcap_get_if_configuration(ptr noundef %0)
  %4 = tail call ptr @g_list_first(ptr noundef %3)
  %5 = icmp eq ptr %4, null
  br i1 %5, label %._crit_edge56, label %.lr.ph55

.lr.ph55:                                         ; preds = %2
  br i1 %1, label %.lr.ph55.split.us, label %.lr.ph55.split

.lr.ph55.split.us:                                ; preds = %.lr.ph55, %._crit_edge.split.us63
  %.03153.us = phi ptr [ %48, %._crit_edge.split.us63 ], [ %4, %.lr.ph55 ]
  %6 = load ptr, ptr %.03153.us, align 8
  %7 = tail call ptr @g_list_first(ptr noundef %6)
  %8 = icmp eq ptr %7, null
  br i1 %8, label %._crit_edge.split.us63, label %.lr.ph.us

.lr.ph.us:                                        ; preds = %.lr.ph55.split.us, %41
  %.03051.us59 = phi ptr [ %43, %41 ], [ %7, %.lr.ph55.split.us ]
  %9 = load ptr, ptr %.03051.us59, align 8
  %.not40.us60.not = icmp eq ptr %9, null
  br i1 %.not40.us60.not, label %41, label %10

10:                                               ; preds = %.lr.ph.us
  %11 = getelementptr inbounds nuw i8, ptr %9, i64 49
  %12 = load i8, ptr %11, align 1, !range !6, !noundef !7
  %13 = trunc nuw i8 %12 to i1
  br i1 %13, label %14, label %41

14:                                               ; preds = %10
  %15 = getelementptr inbounds nuw i8, ptr %9, i64 104
  %16 = load ptr, ptr %15, align 8
  %.not41.us = icmp eq ptr %16, null
  br i1 %.not41.us, label %19, label %17

17:                                               ; preds = %14
  %18 = load ptr, ptr %16, align 8
  br label %19

19:                                               ; preds = %17, %14
  %.028.us = phi ptr [ %18, %17 ], [ null, %14 ]
  %20 = getelementptr inbounds nuw i8, ptr %9, i64 96
  %21 = load ptr, ptr %20, align 8
  %.not42.us = icmp eq ptr %21, null
  br i1 %.not42.us, label %.thread.us, label %22

22:                                               ; preds = %19
  %23 = getelementptr inbounds nuw i8, ptr %21, i64 8
  %24 = load ptr, ptr %23, align 8
  %25 = icmp eq ptr %24, null
  br i1 %25, label %.thread.us, label %29

.thread.us:                                       ; preds = %22, %19
  %.not.us = icmp eq ptr %.028.us, null
  br i1 %.not.us, label %28, label %26

26:                                               ; preds = %.thread.us
  %27 = load i8, ptr %.028.us, align 1
  %.not45.us = icmp eq i8 %27, 0
  br i1 %.not45.us, label %28, label %29

28:                                               ; preds = %26, %.thread.us
  br label %29

29:                                               ; preds = %28, %26, %22
  %.049.us = phi ptr [ %24, %22 ], [ null, %26 ], [ null, %28 ]
  %.4.us = phi i8 [ 0, %22 ], [ 0, %26 ], [ 1, %28 ]
  %30 = getelementptr inbounds nuw i8, ptr %9, i64 72
  %31 = load i32, ptr %30, align 8
  %32 = icmp eq i32 %31, 13
  br i1 %32, label %33, label %41

33:                                               ; preds = %29
  %34 = getelementptr inbounds nuw i8, ptr %9, i64 48
  %35 = load i8, ptr %34, align 8, !range !6, !noundef !7
  %36 = trunc nuw i8 %35 to i1
  br i1 %36, label %37, label %41

37:                                               ; preds = %33
  %38 = tail call zeroext i1 @file_exists(ptr noundef %.049.us)
  br i1 %38, label %41, label %39

39:                                               ; preds = %37
  %40 = tail call zeroext i1 @file_exists(ptr noundef %.028.us)
  %spec.select46.us = select i1 %40, i8 %.4.us, i8 1
  br label %41

41:                                               ; preds = %39, %37, %33, %29, %10, %.lr.ph.us
  %.2.us = phi i8 [ 0, %.lr.ph.us ], [ 0, %10 ], [ %.4.us, %37 ], [ %.4.us, %33 ], [ %.4.us, %29 ], [ %spec.select46.us, %39 ]
  %42 = getelementptr inbounds nuw i8, ptr %.03051.us59, i64 8
  %43 = load ptr, ptr %42, align 8
  %44 = icmp eq ptr %43, null
  %45 = trunc nuw i8 %.2.us to i1
  %.not39.us62 = select i1 %44, i1 true, i1 %45
  br i1 %.not39.us62, label %._crit_edge.split.us63.loopexit, label %.lr.ph.us, !llvm.loop !29

._crit_edge.split.us63.loopexit:                  ; preds = %41
  %46 = trunc nuw i8 %.2.us to i1
  br label %._crit_edge.split.us63

._crit_edge.split.us63:                           ; preds = %.lr.ph55.split.us, %._crit_edge.split.us63.loopexit
  %.1.lcssa.us = phi i1 [ %46, %._crit_edge.split.us63.loopexit ], [ false, %.lr.ph55.split.us ]
  %47 = getelementptr inbounds nuw i8, ptr %.03153.us, i64 8
  %48 = load ptr, ptr %47, align 8
  %49 = icmp eq ptr %48, null
  %.not37.us = select i1 %49, i1 true, i1 %.1.lcssa.us
  br i1 %.not37.us, label %._crit_edge56, label %.lr.ph55.split.us, !llvm.loop !30

.lr.ph55.split:                                   ; preds = %.lr.ph55, %._crit_edge.split.us
  %.03153 = phi ptr [ %58, %._crit_edge.split.us ], [ %4, %.lr.ph55 ]
  %50 = load ptr, ptr %.03153, align 8
  %51 = tail call ptr @g_list_first(ptr noundef %50)
  %52 = icmp eq ptr %51, null
  br i1 %52, label %._crit_edge.split.us, label %.lr.ph

.lr.ph:                                           ; preds = %.lr.ph55.split, %.lr.ph
  %.03051.us = phi ptr [ %55, %.lr.ph ], [ %51, %.lr.ph55.split ]
  %53 = load ptr, ptr %.03051.us, align 8
  %.not40.us.not = icmp ne ptr %53, null
  %54 = getelementptr inbounds nuw i8, ptr %.03051.us, i64 8
  %55 = load ptr, ptr %54, align 8
  %56 = icmp eq ptr %55, null
  %.not39.us = select i1 %56, i1 true, i1 %.not40.us.not
  br i1 %.not39.us, label %._crit_edge.split.us, label %.lr.ph, !llvm.loop !29

._crit_edge.split.us:                             ; preds = %.lr.ph, %.lr.ph55.split
  %.1.lcssa = phi i1 [ false, %.lr.ph55.split ], [ %.not40.us.not, %.lr.ph ]
  %57 = getelementptr inbounds nuw i8, ptr %.03153, i64 8
  %58 = load ptr, ptr %57, align 8
  %59 = icmp eq ptr %58, null
  %.not37 = select i1 %59, i1 true, i1 %.1.lcssa
  br i1 %.not37, label %._crit_edge56, label %.lr.ph55.split, !llvm.loop !30

._crit_edge56:                                    ; preds = %._crit_edge.split.us, %._crit_edge.split.us63, %2
  %.lcssa = phi i1 [ false, %2 ], [ %.1.lcssa.us, %._crit_edge.split.us63 ], [ %.1.lcssa, %._crit_edge.split.us ]
  %60 = tail call ptr @g_list_first(ptr noundef %3)
  %.not10.i = icmp eq ptr %60, null
  br i1 %.not10.i, label %extcap_free_if_configuration.exit, label %.lr.ph.split.us.i

.lr.ph.split.us.i:                                ; preds = %._crit_edge56, %64
  %.011.us.i = phi ptr [ %66, %64 ], [ %60, %._crit_edge56 ]
  %61 = load ptr, ptr %.011.us.i, align 8
  %.not9.us.i = icmp eq ptr %61, null
  br i1 %.not9.us.i, label %64, label %62

62:                                               ; preds = %.lr.ph.split.us.i
  %63 = tail call ptr @g_list_first(ptr noundef nonnull %61)
  tail call void @extcap_free_arg_list(ptr noundef %63)
  br label %64

64:                                               ; preds = %62, %.lr.ph.split.us.i
  %65 = getelementptr inbounds nuw i8, ptr %.011.us.i, i64 8
  %66 = load ptr, ptr %65, align 8
  %.not.us.i = icmp eq ptr %66, null
  br i1 %.not.us.i, label %extcap_free_if_configuration.exit, label %.lr.ph.split.us.i, !llvm.loop !26

extcap_free_if_configuration.exit:                ; preds = %64, %._crit_edge56
  tail call void @g_list_free(ptr noundef %3)
  ret i1 %.lcssa
}